; Function Attrs: nounwind uwtable
define range(i32 0, 2) i32 @Aig_ManCheckAcyclic(ptr noundef %0, i32 noundef %1) local_unnamed_addr #1 {
  tail call void @Aig_ManIncrementTravId(ptr noundef %0) #11
  tail call void @Aig_ManIncrementTravId(ptr noundef %0) #11
  %3 = getelementptr inbounds nuw i8, ptr %0, i64 24
  %4 = load ptr, ptr %3, align 8
  %5 = getelementptr i8, ptr %4, i64 4
  %.val2025 = load i32, ptr %5, align 4
  %6 = icmp sgt i32 %.val2025, 0
  br i1 %6, label %.lr.ph, label %.critedge

.lr.ph:                                           ; preds = %2
  %7 = getelementptr i8, ptr %0, i64 312
  br label %8

8:                                                ; preds = %.lr.ph, %24
  %9 = phi ptr [ %4, %.lr.ph ], [ %25, %24 ]
  %indvars.iv = phi i64 [ 0, %.lr.ph ], [ %indvars.iv.next, %24 ]
  %10 = getelementptr i8, ptr %9, i64 8
  %.val21 = load ptr, ptr %10, align 8
  %11 = getelementptr inbounds nuw ptr, ptr %.val21, i64 %indvars.iv
  %12 = load ptr, ptr %11, align 8
  %13 = getelementptr i8, ptr %12, i64 8
  %.val = load ptr, ptr %13, align 8
  %14 = ptrtoint ptr %.val to i64
  %15 = and i64 %14, -2
  %16 = inttoptr i64 %15 to ptr
  %.val22 = load i32, ptr %7, align 8
  %17 = getelementptr i8, ptr %16, i64 32
  %.val23 = load i32, ptr %17, align 8
  %18 = add nsw i32 %.val22, -1
  %.not = icmp eq i32 %.val23, %18
  br i1 %.not, label %24, label %19

19:                                               ; preds = %8
  %20 = tail call i32 @Aig_ManCheckAcyclic_rec(ptr noundef nonnull %0, ptr noundef nonnull %16, i32 noundef %1)
  %.not18 = icmp eq i32 %20, 0
  br i1 %.not18, label %21, label %._crit_edge

._crit_edge:                                      ; preds = %19
  %.pre = load ptr, ptr %3, align 8
  br label %24

21:                                               ; preds = %19
  %.not19 = icmp eq i32 %1, 0
  br i1 %.not19, label %.critedge, label %22

22:                                               ; preds = %21
  %23 = trunc nuw nsw i64 %indvars.iv to i32
  tail call void (i32, ptr, ...) @Abc_Print(i32 poison, ptr noundef nonnull @.str.17, i32 noundef %23)
  br label %.critedge

24:                                               ; preds = %._crit_edge, %8
  %25 = phi ptr [ %.pre, %._crit_edge ], [ %9, %8 ]
  %indvars.iv.next = add nuw nsw i64 %indvars.iv, 1
  %26 = getelementptr i8, ptr %25, i64 4
  %.val20 = load i32, ptr %26, align 4
  %27 = sext i32 %.val20 to i64
  %28 = icmp slt i64 %indvars.iv.next, %27
  br i1 %28, label %8, label %.critedge, !llvm.loop !10

.critedge:                                        ; preds = %24, %2, %21, %22
  %.1 = phi i32 [ 0, %22 ], [ 0, %21 ], [ 1, %2 ], [ 1, %24 ]
  ret i32 %.1
}